target datalayout = "e-m:e-p270:32:32-p271:32:32-p272:64:64-i64:64-i128:128-f80:128-n8:16:32:64-S128"
target triple = "x86_64-pc-linux-gnu"

%struct.expert_field = type { i32, i32 }
%struct._asn1_ctx_t = type { i32, i32, i8, ptr, ptr, ptr, ptr, ptr, %struct.anon, %struct.anon.2, %struct.anon.3, ptr }
%struct.anon = type { i32, i8, i8, i8, ptr, ptr, i32, i32, ptr, ptr, ptr, %union.anon }
%union.anon = type { %struct.anon.0 }
%struct.anon.0 = type { ptr }
%struct.anon.2 = type { ptr, ptr, ptr }
%struct.anon.3 = type { i32, i8, ptr, i32, i32, ptr, ptr, ptr, %union.anon.4 }
%union.anon.4 = type { %struct.anon.5 }
%struct.anon.5 = type { ptr }

@last_class = internal global i8 0, align 1
@last_pc = internal global i8 0, align 1
@last_tag = internal global i32 0, align 4
@last_length = internal global i32 0, align 4
@last_ind = internal global i8 0, align 1
@last_length_tvb = internal global ptr null, align 8
@last_length_offset = internal global i32 0, align 4
@last_length_len = internal global i32 0, align 4
@ei_ber_error_length = internal global %struct.expert_field zeroinitializer, align 4
@ei_ber_real_not_primitive = internal global %struct.expert_field zeroinitializer, align 4
@.str.350 = private unnamed_addr constant [67 x i8] c"BER Error: length %u longer than tvb_reported_length_remaining: %d\00", align 1

; Function Attrs: null_pointer_is_valid sspstrong uwtable
define internal void @ber_add_large_length_error(ptr noundef %0, ptr noundef %1, ptr noundef %2, i32 noundef %3, i32 noundef %4, ptr noundef %5, i32 noundef %6, i32 noundef %7) #0 {
  %9 = alloca ptr, align 8
  %10 = alloca ptr, align 8
  %11 = alloca ptr, align 8
  %12 = alloca i32, align 4
  %13 = alloca i32, align 4
  %14 = alloca ptr, align 8
  %15 = alloca i32, align 4
  %16 = alloca i32, align 4
  store ptr %0, ptr %9, align 8
  store ptr %1, ptr %10, align 8
  store ptr %2, ptr %11, align 8
  store i32 %3, ptr %12, align 4
  store i32 %4, ptr %13, align 4
  store ptr %5, ptr %14, align 8
  store i32 %6, ptr %15, align 4
  store i32 %7, ptr %16, align 4
  %17 = load ptr, ptr %10, align 8
  %18 = load ptr, ptr %9, align 8
  %19 = load ptr, ptr %14, align 8
  %20 = load i32, ptr %15, align 4
  %21 = load i32, ptr %16, align 4
  %22 = load i32, ptr %13, align 4
  %23 = load ptr, ptr %11, align 8
  %24 = load i32, ptr %12, align 4
  %25 = call i32 @tvb_reported_length_remaining(ptr noundef %23, i32 noundef %24)
  %26 = call ptr (ptr, ptr, ptr, ptr, i32, i32, ptr, ...) @proto_tree_add_expert_format(ptr noundef %17, ptr noundef %18, ptr noundef @ei_ber_error_length, ptr noundef %19, i32 noundef %20, i32 noundef %21, ptr noundef @.str.350, i32 noundef %22, i32 noundef %25)
  ret void
}

; Function Attrs: nounwind null_pointer_is_valid sspstrong uwtable
define internal void @get_last_ber_length(ptr noundef %0, ptr noundef %1, ptr noundef %2, ptr noundef %3, ptr noundef %4) #5 {
  %6 = alloca ptr, align 8
  %7 = alloca ptr, align 8
  %8 = alloca ptr, align 8
  %9 = alloca ptr, align 8
  %10 = alloca ptr, align 8
  store ptr %0, ptr %6, align 8
  store ptr %1, ptr %7, align 8
  store ptr %2, ptr %8, align 8
  store ptr %3, ptr %9, align 8
  store ptr %4, ptr %10, align 8
  %11 = load ptr, ptr %6, align 8
  %12 = icmp ne ptr %11, null
  br i1 %12, label %13, label %16

13:                                               ; preds = %5
  %14 = load i32, ptr @last_length, align 4
  %15 = load ptr, ptr %6, align 8
  store i32 %14, ptr %15, align 4
  br label %16

16:                                               ; preds = %13, %5
  %17 = load ptr, ptr %7, align 8
  %18 = icmp ne ptr %17, null
  br i1 %18, label %19, label %24

19:                                               ; preds = %16
  %20 = load i8, ptr @last_ind, align 1, !range !6, !noundef !7
  %21 = trunc i8 %20 to i1
  %22 = load ptr, ptr %7, align 8
  %23 = zext i1 %21 to i8
  store i8 %23, ptr %22, align 1
  br label %24

24:                                               ; preds = %19, %16
  %25 = load ptr, ptr %8, align 8
  %26 = icmp ne ptr %25, null
  br i1 %26, label %27, label %30

27:                                               ; preds = %24
  %28 = load ptr, ptr @last_length_tvb, align 8
  %29 = load ptr, ptr %8, align 8
  store ptr %28, ptr %29, align 8
  br label %30

30:                                               ; preds = %27, %24
  %31 = load ptr, ptr %9, align 8
  %32 = icmp ne ptr %31, null
  br i1 %32, label %33, label %36

33:                                               ; preds = %30
  %34 = load i32, ptr @last_length_offset, align 4
  %35 = load ptr, ptr %9, align 8
  store i32 %34, ptr %35, align 4
  br label %36

36:                                               ; preds = %33, %30
  %37 = load ptr, ptr %10, align 8
  %38 = icmp ne ptr %37, null
  br i1 %38, label %39, label %42

39:                                               ; preds = %36
  %40 = load i32, ptr @last_length_len, align 4
  %41 = load ptr, ptr %10, align 8
  store i32 %40, ptr %41, align 4
  br label %42

42:                                               ; preds = %39, %36
  ret void
}

; Function Attrs: nounwind null_pointer_is_valid sspstrong uwtable
define internal void @get_last_ber_identifier(ptr noundef %0, ptr noundef %1, ptr noundef %2) #5 {
  %4 = alloca ptr, align 8
  %5 = alloca ptr, align 8
  %6 = alloca ptr, align 8
  store ptr %0, ptr %4, align 8
  store ptr %1, ptr %5, align 8
  store ptr %2, ptr %6, align 8
  %7 = load ptr, ptr %4, align 8
  %8 = icmp ne ptr %7, null
  br i1 %8, label %9, label %12

9:                                                ; preds = %3
  %10 = load i8, ptr @last_class, align 1
  %11 = load ptr, ptr %4, align 8
  store i8 %10, ptr %11, align 1
  br label %12

12:                                               ; preds = %9, %3
  %13 = load ptr, ptr %5, align 8
  %14 = icmp ne ptr %13, null
  br i1 %14, label %15, label %20

15:                                               ; preds = %12
  %16 = load i8, ptr @last_pc, align 1, !range !6, !noundef !7
  %17 = trunc i8 %16 to i1
  %18 = load ptr, ptr %5, align 8
  %19 = zext i1 %17 to i8
  store i8 %19, ptr %18, align 1
  br label %20

20:                                               ; preds = %15, %12
  %21 = load ptr, ptr %6, align 8
  %22 = icmp ne ptr %21, null
  br i1 %22, label %23, label %26

23:                                               ; preds = %20
  %24 = load i32, ptr @last_tag, align 4
  %25 = load ptr, ptr %6, align 8
  store i32 %24, ptr %25, align 4
  br label %26

26:                                               ; preds = %23, %20
  ret void
}

; Function Attrs: null_pointer_is_valid sspstrong uwtable
define i32 @dissect_ber_real(i1 noundef zeroext %0, ptr noundef %1, ptr noundef %2, ptr noundef %3, i32 noundef %4, i32 noundef %5, ptr noundef %6) #0 {
  %8 = alloca i32, align 4
  %9 = alloca i8, align 1
  %10 = alloca ptr, align 8
  %11 = alloca ptr, align 8
  %12 = alloca ptr, align 8
  %13 = alloca i32, align 4
  %14 = alloca i32, align 4
  %15 = alloca ptr, align 8
  %16 = alloca i8, align 1
  %17 = alloca i8, align 1
  %18 = alloca i32, align 4
  %19 = alloca i32, align 4
  %20 = alloca i32, align 4
  %21 = alloca i32, align 4
  %22 = alloca ptr, align 8
  %23 = alloca i32, align 4
  %24 = alloca i32, align 4
  %25 = alloca double, align 8
  %26 = alloca i32, align 4
  %27 = zext i1 %0 to i8
  store i8 %27, ptr %9, align 1
  store ptr %1, ptr %10, align 8
  store ptr %2, ptr %11, align 8
  store ptr %3, ptr %12, align 8
  store i32 %4, ptr %13, align 4
  store i32 %5, ptr %14, align 4
  store ptr %6, ptr %15, align 8
  call void @llvm.lifetime.start.p0(i64 1, ptr %16) #12
  call void @llvm.lifetime.start.p0(i64 1, ptr %17) #12
  call void @llvm.lifetime.start.p0(i64 4, ptr %18) #12
  call void @llvm.lifetime.start.p0(i64 4, ptr %19) #12
  store i32 0, ptr %19, align 4
  call void @llvm.lifetime.start.p0(i64 4, ptr %20) #12
  call void @llvm.lifetime.start.p0(i64 4, ptr %21) #12
  call void @llvm.lifetime.start.p0(i64 8, ptr %22) #12
  call void @llvm.lifetime.start.p0(i64 4, ptr %23) #12
  call void @llvm.lifetime.start.p0(i64 4, ptr %24) #12
  call void @llvm.lifetime.start.p0(i64 8, ptr %25) #12
  store double 0.000000e+00, ptr %25, align 8
  %28 = load i8, ptr %9, align 1, !range !6, !noundef !7
  %29 = trunc i8 %28 to i1
  br i1 %29, label %48, label %30

30:                                               ; preds = %7
  %31 = load ptr, ptr %10, align 8
  %32 = getelementptr inbounds nuw %struct._asn1_ctx_t, ptr %31, i32 0, i32 3
  %33 = load ptr, ptr %32, align 8
  %34 = load ptr, ptr %11, align 8
  %35 = load ptr, ptr %12, align 8
  %36 = load i32, ptr %13, align 4
  %37 = call i32 @dissect_ber_identifier(ptr noundef %33, ptr noundef %34, ptr noundef %35, i32 noundef %36, ptr noundef %16, ptr noundef %17, ptr noundef %18)
  store i32 %37, ptr %13, align 4
  %38 = load ptr, ptr %10, align 8
  %39 = getelementptr inbounds nuw %struct._asn1_ctx_t, ptr %38, i32 0, i32 3
  %40 = load ptr, ptr %39, align 8
  %41 = load ptr, ptr %11, align 8
  %42 = load ptr, ptr %12, align 8
  %43 = load i32, ptr %13, align 4
  %44 = call i32 @dissect_ber_length(ptr noundef %40, ptr noundef %41, ptr noundef %42, i32 noundef %43, ptr noundef %19, ptr noundef null)
  store i32 %44, ptr %13, align 4
  %45 = load i32, ptr %13, align 4
  %46 = load i32, ptr %19, align 4
  %47 = add i32 %45, %46
  store i32 %47, ptr %21, align 4
  br label %71

48:                                               ; preds = %7
  call void @get_last_ber_identifier(ptr noundef %16, ptr noundef %17, ptr noundef %18)
  call void @get_last_ber_length(ptr noundef %19, ptr noundef null, ptr noundef %22, ptr noundef %23, ptr noundef %24)
  %49 = load i32, ptr %13, align 4
  %50 = load i32, ptr %19, align 4
  %51 = add i32 %49, %50
  store i32 %51, ptr %21, align 4
  %52 = load ptr, ptr %12, align 8
  %53 = load i32, ptr %13, align 4
  %54 = call i32 @tvb_reported_length_remaining(ptr noundef %52, i32 noundef %53)
  store i32 %54, ptr %20, align 4
  %55 = load i32, ptr %20, align 4
  %56 = load i32, ptr %19, align 4
  %57 = icmp ult i32 %55, %56
  br i1 %57, label %58, label %70

58:                                               ; preds = %48
  %59 = load ptr, ptr %10, align 8
  %60 = getelementptr inbounds nuw %struct._asn1_ctx_t, ptr %59, i32 0, i32 3
  %61 = load ptr, ptr %60, align 8
  %62 = load ptr, ptr %11, align 8
  %63 = load ptr, ptr %12, align 8
  %64 = load i32, ptr %13, align 4
  %65 = load i32, ptr %19, align 4
  %66 = load ptr, ptr %22, align 8
  %67 = load i32, ptr %23, align 4
  %68 = load i32, ptr %24, align 4
  call void @ber_add_large_length_error(ptr noundef %61, ptr noundef %62, ptr noundef %63, i32 noundef %64, i32 noundef %65, ptr noundef %66, i32 noundef %67, i32 noundef %68)
  %69 = load i32, ptr %21, align 4
  store i32 %69, ptr %8, align 4
  store i32 1, ptr %26, align 4
  br label %108

70:                                               ; preds = %48
  br label %71

71:                                               ; preds = %70, %30
  %72 = load i8, ptr %17, align 1, !range !6, !noundef !7
  %73 = trunc i8 %72 to i1
  br i1 %73, label %74, label %83

74:                                               ; preds = %71
  %75 = load ptr, ptr %11, align 8
  %76 = load ptr, ptr %10, align 8
  %77 = getelementptr inbounds nuw %struct._asn1_ctx_t, ptr %76, i32 0, i32 3
  %78 = load ptr, ptr %77, align 8
  %79 = load ptr, ptr %12, align 8
  %80 = load i32, ptr %13, align 4
  %81 = sub i32 %80, 2
  %82 = call ptr @proto_tree_add_expert(ptr noundef %75, ptr noundef %78, ptr noundef @ei_ber_real_not_primitive, ptr noundef %79, i32 noundef %81, i32 noundef 1)
  br label %83

83:                                               ; preds = %74, %71
  %84 = load ptr, ptr %12, align 8
  %85 = load i32, ptr %13, align 4
  %86 = load i32, ptr %19, align 4
  %87 = call ptr @tvb_get_ptr(ptr noundef %84, i32 noundef %85, i32 noundef %86)
  %88 = load i32, ptr %19, align 4
  %89 = call double @asn1_get_real(ptr noundef %87, i32 noundef %88)
  store double %89, ptr %25, align 8
  %90 = load ptr, ptr %11, align 8
  %91 = load i32, ptr %14, align 4
  %92 = load ptr, ptr %12, align 8
  %93 = load i32, ptr %21, align 4
  %94 = load i32, ptr %19, align 4
  %95 = sub i32 %93, %94
  %96 = load i32, ptr %19, align 4
  %97 = load double, ptr %25, align 8
  %98 = call ptr @proto_tree_add_double(ptr noundef %90, i32 noundef %91, ptr noundef %92, i32 noundef %95, i32 noundef %96, double noundef %97)
  %99 = load ptr, ptr %10, align 8
  %100 = getelementptr inbounds nuw %struct._asn1_ctx_t, ptr %99, i32 0, i32 4
  store ptr %98, ptr %100, align 8
  %101 = load ptr, ptr %15, align 8
  %102 = icmp ne ptr %101, null
  br i1 %102, label %103, label %106

103:                                              ; preds = %83
  %104 = load double, ptr %25, align 8
  %105 = load ptr, ptr %15, align 8
  store double %104, ptr %105, align 8
  br label %106

106:                                              ; preds = %103, %83
  %107 = load i32, ptr %21, align 4
  store i32 %107, ptr %8, align 4
  store i32 1, ptr %26, align 4
  br label %108

108:                                              ; preds = %106, %58
  call void @llvm.lifetime.end.p0(i64 8, ptr %25) #12
  call void @llvm.lifetime.end.p0(i64 4, ptr %24) #12
  call void @llvm.lifetime.end.p0(i64 4, ptr %23) #12
  call void @llvm.lifetime.end.p0(i64 8, ptr %22) #12
  call void @llvm.lifetime.end.p0(i64 4, ptr %21) #12
  call void @llvm.lifetime.end.p0(i64 4, ptr %20) #12
  call void @llvm.lifetime.end.p0(i64 4, ptr %19) #12
  call void @llvm.lifetime.end.p0(i64 4, ptr %18) #12
  call void @llvm.lifetime.end.p0(i64 1, ptr %17) #12
  call void @llvm.lifetime.end.p0(i64 1, ptr %16) #12
  %109 = load i32, ptr %8, align 4
  ret i32 %109
}