; Function Attrs: null_pointer_is_valid sspstrong uwtable
define i32 @dissect_ber_real(i1 noundef zeroext %0, ptr noundef captures(none) %1, ptr noundef %2, ptr noundef %3, i32 noundef %4, i32 noundef %5, ptr noundef writeonly captures(address_is_null) %6) local_unnamed_addr #0 {
  %8 = alloca i8, align 1
  %9 = alloca i8, align 1
  %10 = alloca i32, align 4
  %11 = alloca i32, align 4
  call void @llvm.lifetime.start.p0(i64 1, ptr nonnull %8) #14
  call void @llvm.lifetime.start.p0(i64 1, ptr nonnull %9) #14
  call void @llvm.lifetime.start.p0(i64 4, ptr nonnull %10) #14
  call void @llvm.lifetime.start.p0(i64 4, ptr nonnull %11) #14
  store i32 0, ptr %11, align 4
  br i1 %0, label %17, label %12

12:                                               ; preds = %7
  %13 = call i32 @dissect_ber_identifier(ptr poison, ptr noundef %2, ptr noundef %3, i32 noundef %4, ptr noundef nonnull %8, ptr noundef nonnull %9, ptr noundef nonnull %10)
  %14 = call i32 @dissect_ber_length(ptr poison, ptr noundef %2, ptr noundef %3, i32 noundef %13, ptr noundef nonnull %11, ptr noundef null)
  %15 = load i32, ptr %11, align 4
  %16 = add i32 %15, %14
  %.pre = load i8, ptr %9, align 1, !range !8
  br label %33

17:                                               ; preds = %7
  %18 = load i8, ptr @last_class, align 1
  store i8 %18, ptr %8, align 1
  %19 = load i8, ptr @last_pc, align 1, !range !8, !noundef !9
  store i8 %19, ptr %9, align 1
  %20 = load i32, ptr @last_tag, align 4
  store i32 %20, ptr %10, align 4
  %21 = load i32, ptr @last_length, align 4
  store i32 %21, ptr %11, align 4
  %22 = load ptr, ptr @last_length_tvb, align 8
  %23 = load i32, ptr @last_length_offset, align 4
  %24 = load i32, ptr @last_length_len, align 4
  %25 = add i32 %21, %4
  %26 = tail call i32 @tvb_reported_length_remaining(ptr noundef %3, i32 noundef %4)
  %27 = icmp ult i32 %26, %21
  br i1 %27, label %28, label %33

28:                                               ; preds = %17
  %29 = getelementptr inbounds nuw i8, ptr %1, i64 16
  %30 = load ptr, ptr %29, align 8
  %31 = tail call i32 @tvb_reported_length_remaining(ptr noundef %3, i32 noundef %4)
  %32 = tail call ptr (ptr, ptr, ptr, ptr, i32, i32, ptr, ...) @proto_tree_add_expert_format(ptr noundef %2, ptr noundef %30, ptr noundef nonnull @ei_ber_error_length, ptr noundef %22, i32 noundef %23, i32 noundef %24, ptr noundef nonnull @.str.350, i32 noundef %21, i32 noundef %31)
  br label %52

33:                                               ; preds = %17, %12
  %34 = phi i32 [ %21, %17 ], [ %15, %12 ]
  %35 = phi i8 [ %19, %17 ], [ %.pre, %12 ]
  %.036 = phi i32 [ %4, %17 ], [ %14, %12 ]
  %.0 = phi i32 [ %25, %17 ], [ %16, %12 ]
  %36 = trunc nuw i8 %35 to i1
  br i1 %36, label %37, label %42

37:                                               ; preds = %33
  %38 = getelementptr inbounds nuw i8, ptr %1, i64 16
  %39 = load ptr, ptr %38, align 8
  %40 = add i32 %.036, -2
  %41 = call ptr @proto_tree_add_expert(ptr noundef %2, ptr noundef %39, ptr noundef nonnull @ei_ber_real_not_primitive, ptr noundef %3, i32 noundef %40, i32 noundef 1)
  %.pre40 = load i32, ptr %11, align 4
  br label %42

42:                                               ; preds = %37, %33
  %43 = phi i32 [ %.pre40, %37 ], [ %34, %33 ]
  %44 = call ptr @tvb_get_ptr(ptr noundef %3, i32 noundef %.036, i32 noundef %43)
  %45 = load i32, ptr %11, align 4
  %46 = call double @asn1_get_real(ptr noundef %44, i32 noundef %45)
  %47 = load i32, ptr %11, align 4
  %48 = sub i32 %.0, %47
  %49 = call ptr @proto_tree_add_double(ptr noundef %2, i32 noundef %5, ptr noundef %3, i32 noundef %48, i32 noundef %47, double noundef %46)
  %50 = getelementptr inbounds nuw i8, ptr %1, i64 24
  store ptr %49, ptr %50, align 8
  %.not = icmp eq ptr %6, null
  br i1 %.not, label %52, label %51

51:                                               ; preds = %42
  store double %46, ptr %6, align 8
  br label %52

52:                                               ; preds = %42, %51, %28
  %.035 = phi i32 [ %25, %28 ], [ %.0, %51 ], [ %.0, %42 ]
  call void @llvm.lifetime.end.p0(i64 4, ptr nonnull %11) #14
  call void @llvm.lifetime.end.p0(i64 4, ptr nonnull %10) #14
  call void @llvm.lifetime.end.p0(i64 1, ptr nonnull %9) #14
  call void @llvm.lifetime.end.p0(i64 1, ptr nonnull %8) #14
  ret i32 %.035
}